target datalayout = "e-m:e-p270:32:32-p271:32:32-p272:64:64-i64:64-i128:128-f80:128-n8:16:32:64-S128"
target triple = "x86_64-pc-linux-gnu"

%struct.H5FD_onion_revision_index_t = type { i8, i32, i64, i64, i64, i64, ptr }

@H5FD_init_g = external global i8, align 1
@H5_libterm_g = external global i8, align 1
@.str = private unnamed_addr constant [109 x i8] c"generated/home/dtcxzyw/WorkSpace/Projects/compilers/llvm-opt-benchmark/bench/hdf5/hdf5/src/H5FDonion_index.c\00", align 1
@H5E_VFL_g = external global i64, align 8
@H5E_CANTALLOC_g = external global i64, align 8
@__func__.H5FD__onion_revision_index_init = private unnamed_addr constant [32 x i8] c"H5FD__onion_revision_index_init\00", align 1
@.str.11 = private unnamed_addr constant [22 x i8] c"cannot allocate index\00", align 1
@.str.12 = private unnamed_addr constant [27 x i8] c"cannot allocate hash table\00", align 1

; Function Attrs: nounwind uwtable
define ptr @H5FD__onion_revision_index_init(i32 noundef %0) #0 {
  %2 = alloca i32, align 4
  %3 = alloca i64, align 8
  %4 = alloca ptr, align 8
  %5 = alloca ptr, align 8
  %6 = alloca i8, align 1
  store i32 %0, ptr %2, align 4, !tbaa !16
  call void @llvm.lifetime.start.p0(i64 8, ptr %3) #9
  store i64 1024, ptr %3, align 8, !tbaa !12
  call void @llvm.lifetime.start.p0(i64 8, ptr %4) #9
  store ptr null, ptr %4, align 8, !tbaa !65
  call void @llvm.lifetime.start.p0(i64 8, ptr %5) #9
  store ptr null, ptr %5, align 8, !tbaa !65
  call void @llvm.lifetime.start.p0(i64 1, ptr %6) #9
  store i8 0, ptr %6, align 1, !tbaa !18
  %7 = load i8, ptr @H5FD_init_g, align 1, !tbaa !18, !range !20, !noundef !21
  %8 = trunc i8 %7 to i1
  br i1 %8, label %13, label %9

9:                                                ; preds = %1
  %10 = load i8, ptr @H5_libterm_g, align 1, !tbaa !18, !range !20, !noundef !21
  %11 = trunc i8 %10 to i1
  %12 = xor i1 %11, true
  br label %13

13:                                               ; preds = %9, %1
  %14 = phi i1 [ true, %1 ], [ %12, %9 ]
  %15 = xor i1 %14, true
  %16 = xor i1 %15, true
  %17 = zext i1 %16 to i32
  %18 = sext i32 %17 to i64
  %19 = call i64 @llvm.expect.i64(i64 %18, i64 1)
  %20 = icmp ne i64 %19, 0
  br i1 %20, label %21, label %106

21:                                               ; preds = %13
  %22 = call noalias ptr @calloc(i64 noundef 1, i64 noundef 48) #11
  store ptr %22, ptr %4, align 8, !tbaa !65
  %23 = icmp eq ptr null, %22
  br i1 %23, label %24, label %43

24:                                               ; preds = %21
  br label %25

25:                                               ; preds = %24
  br label %26

26:                                               ; preds = %25
  br label %27

27:                                               ; preds = %26
  %28 = load i64, ptr @H5E_VFL_g, align 8, !tbaa !12
  %29 = load i64, ptr @H5E_CANTALLOC_g, align 8, !tbaa !12
  %30 = call i32 (ptr, ptr, i32, i64, i64, ptr, ...) @H5E_printf_stack(ptr noundef @.str, ptr noundef @__func__.H5FD__onion_revision_index_init, i32 noundef 343, i64 noundef %28, i64 noundef %29, ptr noundef @.str.11)
  br label %31

31:                                               ; preds = %27
  br label %32

32:                                               ; preds = %31
  store i8 1, ptr %6, align 1, !tbaa !18
  %33 = load i8, ptr %6, align 1, !tbaa !18, !range !20, !noundef !21
  %34 = trunc i8 %33 to i1
  %35 = zext i1 %34 to i8
  store i8 %35, ptr %6, align 1, !tbaa !18
  br label %36

36:                                               ; preds = %32
  br label %37

37:                                               ; preds = %36
  br label %38

38:                                               ; preds = %37
  store ptr null, ptr %5, align 8, !tbaa !65
  br label %99

39:                                               ; No predecessors!
  br label %40

40:                                               ; preds = %39
  br label %41

41:                                               ; preds = %40
  br label %42

42:                                               ; preds = %41
  br label %43

43:                                               ; preds = %42, %21
  %44 = load i64, ptr %3, align 8, !tbaa !12
  %45 = mul i64 %44, 8
  %46 = call noalias ptr @calloc(i64 noundef 1, i64 noundef %45) #11
  %47 = load ptr, ptr %4, align 8, !tbaa !65
  %48 = getelementptr inbounds nuw %struct.H5FD_onion_revision_index_t, ptr %47, i32 0, i32 6
  store ptr %46, ptr %48, align 8, !tbaa !73
  %49 = icmp eq ptr null, %46
  br i1 %49, label %50, label %69

50:                                               ; preds = %43
  br label %51

51:                                               ; preds = %50
  br label %52

52:                                               ; preds = %51
  br label %53

53:                                               ; preds = %52
  %54 = load i64, ptr @H5E_VFL_g, align 8, !tbaa !12
  %55 = load i64, ptr @H5E_CANTALLOC_g, align 8, !tbaa !12
  %56 = call i32 (ptr, ptr, i32, i64, i64, ptr, ...) @H5E_printf_stack(ptr noundef @.str, ptr noundef @__func__.H5FD__onion_revision_index_init, i32 noundef 347, i64 noundef %54, i64 noundef %55, ptr noundef @.str.12)
  br label %57

57:                                               ; preds = %53
  br label %58

58:                                               ; preds = %57
  store i8 1, ptr %6, align 1, !tbaa !18
  %59 = load i8, ptr %6, align 1, !tbaa !18, !range !20, !noundef !21
  %60 = trunc i8 %59 to i1
  %61 = zext i1 %60 to i8
  store i8 %61, ptr %6, align 1, !tbaa !18
  br label %62

62:                                               ; preds = %58
  br label %63

63:                                               ; preds = %62
  br label %64

64:                                               ; preds = %63
  store ptr null, ptr %5, align 8, !tbaa !65
  br label %99

65:                                               ; No predecessors!
  br label %66

66:                                               ; preds = %65
  br label %67

67:                                               ; preds = %66
  br label %68

68:                                               ; preds = %67
  br label %69

69:                                               ; preds = %68, %43
  %70 = load ptr, ptr %4, align 8, !tbaa !65
  %71 = getelementptr inbounds nuw %struct.H5FD_onion_revision_index_t, ptr %70, i32 0, i32 0
  store i8 1, ptr %71, align 8, !tbaa !78
  %72 = load ptr, ptr %4, align 8, !tbaa !65
  %73 = getelementptr inbounds nuw %struct.H5FD_onion_revision_index_t, ptr %72, i32 0, i32 2
  store i64 0, ptr %73, align 8, !tbaa !79
  %74 = load ptr, ptr %4, align 8, !tbaa !65
  %75 = getelementptr inbounds nuw %struct.H5FD_onion_revision_index_t, ptr %74, i32 0, i32 1
  store i32 0, ptr %75, align 4, !tbaa !80
  br label %76

76:                                               ; preds = %85, %69
  %77 = load ptr, ptr %4, align 8, !tbaa !65
  %78 = getelementptr inbounds nuw %struct.H5FD_onion_revision_index_t, ptr %77, i32 0, i32 1
  %79 = load i32, ptr %78, align 4, !tbaa !80
  %80 = shl i32 1, %79
  %81 = load i32, ptr %2, align 4, !tbaa !16
  %82 = and i32 %80, %81
  %83 = icmp eq i32 %82, 0
  br i1 %83, label %84, label %90

84:                                               ; preds = %76
  br label %85

85:                                               ; preds = %84
  %86 = load ptr, ptr %4, align 8, !tbaa !65
  %87 = getelementptr inbounds nuw %struct.H5FD_onion_revision_index_t, ptr %86, i32 0, i32 1
  %88 = load i32, ptr %87, align 4, !tbaa !80
  %89 = add i32 %88, 1
  store i32 %89, ptr %87, align 4, !tbaa !80
  br label %76, !llvm.loop !81

90:                                               ; preds = %76
  %91 = load i64, ptr %3, align 8, !tbaa !12
  %92 = load ptr, ptr %4, align 8, !tbaa !65
  %93 = getelementptr inbounds nuw %struct.H5FD_onion_revision_index_t, ptr %92, i32 0, i32 3
  store i64 %91, ptr %93, align 8, !tbaa !70
  %94 = load ptr, ptr %4, align 8, !tbaa !65
  %95 = getelementptr inbounds nuw %struct.H5FD_onion_revision_index_t, ptr %94, i32 0, i32 4
  store i64 10, ptr %95, align 8, !tbaa !82
  %96 = load ptr, ptr %4, align 8, !tbaa !65
  %97 = getelementptr inbounds nuw %struct.H5FD_onion_revision_index_t, ptr %96, i32 0, i32 5
  store i64 0, ptr %97, align 8, !tbaa !67
  %98 = load ptr, ptr %4, align 8, !tbaa !65
  store ptr %98, ptr %5, align 8, !tbaa !65
  br label %99

99:                                               ; preds = %90, %64, %38
  %100 = load ptr, ptr %5, align 8, !tbaa !65
  %101 = icmp eq ptr null, %100
  br i1 %101, label %102, label %105

102:                                              ; preds = %99
  %103 = load ptr, ptr %4, align 8, !tbaa !65
  %104 = call ptr @H5MM_xfree(ptr noundef %103)
  br label %105

105:                                              ; preds = %102, %99
  br label %106

106:                                              ; preds = %105, %13
  %107 = load ptr, ptr %5, align 8, !tbaa !65
  call void @llvm.lifetime.end.p0(i64 1, ptr %6) #9
  call void @llvm.lifetime.end.p0(i64 8, ptr %5) #9
  call void @llvm.lifetime.end.p0(i64 8, ptr %4) #9
  call void @llvm.lifetime.end.p0(i64 8, ptr %3) #9
  ret ptr %107
}