; Function Attrs: nounwind uwtable
define noundef ptr @H5FD__onion_revision_index_init(i32 noundef %0) local_unnamed_addr #0 {
  %2 = load i8, ptr @H5FD_init_g, align 1, !tbaa !3, !range !7, !noundef !8
  %3 = trunc nuw i8 %2 to i1
  %4 = load i8, ptr @H5_libterm_g, align 1, !range !7
  %5 = trunc nuw i8 %4 to i1
  %6 = xor i1 %5, true
  %7 = select i1 %3, i1 true, i1 %6
  br i1 %7, label %8, label %35, !prof !9

8:                                                ; preds = %1
  %9 = tail call noalias dereferenceable_or_null(48) ptr @calloc(i64 noundef 1, i64 noundef 48) #16
  %10 = icmp eq ptr %9, null
  br i1 %10, label %11, label %15

11:                                               ; preds = %8
  %12 = load i64, ptr @H5E_VFL_g, align 8, !tbaa !26
  %13 = load i64, ptr @H5E_CANTALLOC_g, align 8, !tbaa !26
  %14 = tail call i32 (ptr, ptr, i32, i64, i64, ptr, ...) @H5E_printf_stack(ptr noundef nonnull @.str, ptr noundef nonnull @__func__.H5FD__onion_revision_index_init, i32 noundef 343, i64 noundef %12, i64 noundef %13, ptr noundef nonnull @.str.11) #14
  br label %33

15:                                               ; preds = %8
  %16 = tail call noalias dereferenceable_or_null(8192) ptr @calloc(i64 noundef 1, i64 noundef 8192) #16
  %17 = getelementptr inbounds nuw i8, ptr %9, i64 40
  store ptr %16, ptr %17, align 8, !tbaa !62
  %18 = icmp eq ptr %16, null
  br i1 %18, label %19, label %23

19:                                               ; preds = %15
  %20 = load i64, ptr @H5E_VFL_g, align 8, !tbaa !26
  %21 = load i64, ptr @H5E_CANTALLOC_g, align 8, !tbaa !26
  %22 = tail call i32 (ptr, ptr, i32, i64, i64, ptr, ...) @H5E_printf_stack(ptr noundef nonnull @.str, ptr noundef nonnull @__func__.H5FD__onion_revision_index_init, i32 noundef 347, i64 noundef %20, i64 noundef %21, ptr noundef nonnull @.str.12) #14
  br label %33

23:                                               ; preds = %15
  store i8 1, ptr %9, align 8, !tbaa !69
  br label %24

24:                                               ; preds = %24, %23
  %storemerge = phi i32 [ 0, %23 ], [ %28, %24 ]
  %25 = shl nuw i32 1, %storemerge
  %26 = and i32 %25, %0
  %27 = icmp eq i32 %26, 0
  %28 = add i32 %storemerge, 1
  br i1 %27, label %24, label %29, !llvm.loop !70

29:                                               ; preds = %24
  %30 = getelementptr inbounds nuw i8, ptr %9, i64 4
  store i32 %storemerge, ptr %30, align 4, !tbaa !71
  %31 = getelementptr inbounds nuw i8, ptr %9, i64 16
  store i64 1024, ptr %31, align 8, !tbaa !61
  %32 = getelementptr inbounds nuw i8, ptr %9, i64 24
  store i64 10, ptr %32, align 8, !tbaa !72
  br label %35

33:                                               ; preds = %11, %19
  %34 = tail call ptr @H5MM_xfree(ptr noundef %9) #14
  br label %35

35:                                               ; preds = %29, %33, %1
  %.0 = phi ptr [ null, %33 ], [ %9, %29 ], [ null, %1 ]
  ret ptr %.0
}